target datalayout = "e-m:e-p270:32:32-p271:32:32-p272:64:64-i64:64-i128:128-f80:128-n8:16:32:64-S128"
target triple = "x86_64-pc-linux-gnu"

%struct.ossl_param_st = type { ptr, i32, ptr, i64, i64 }

@.str.53 = private unnamed_addr constant [31 x i8] c"../openssl/test/evp_kdf_test.c\00", align 1
@.str.60 = private unnamed_addr constant [7 x i8] c"sha256\00", align 1
@.str.65 = private unnamed_addr constant [37 x i8] c"EVP_KDF_CTX_set_params(kctx, params)\00", align 1
@.str.67 = private unnamed_addr constant [2 x i8] c"0\00", align 1
@.str.71 = private unnamed_addr constant [5 x i8] c"salt\00", align 1
@.str.118 = private unnamed_addr constant [7 x i8] c"secret\00", align 1
@.str.123 = private unnamed_addr constant [2 x i8] c"1\00", align 1
@.str.124 = private unnamed_addr constant [6 x i8] c"label\00", align 1
@.str.125 = private unnamed_addr constant [41 x i8] c"kctx = get_kdfbyname(OSSL_KDF_NAME_HKDF)\00", align 1
@.str.126 = private unnamed_addr constant [5 x i8] c"HKDF\00", align 1
@.str.128 = private unnamed_addr constant [113 x i8] c"params = construct_hkdf_params( has_digest ? \22sha256\22 : NULL, \22secret\22, 6, \22salt\22, expand_only ? NULL : \22label\22)\00", align 1
@.str.129 = private unnamed_addr constant [46 x i8] c"gettables = EVP_KDF_CTX_gettable_params(kctx)\00", align 1
@.str.130 = private unnamed_addr constant [60 x i8] c"p = OSSL_PARAM_locate_const(gettables, OSSL_KDF_PARAM_SIZE)\00", align 1
@.str.131 = private unnamed_addr constant [5 x i8] c"size\00", align 1
@.str.132 = private unnamed_addr constant [41 x i8] c"EVP_KDF_CTX_get_params(kctx, params_get)\00", align 1
@.str.133 = private unnamed_addr constant [3 x i8] c"sz\00", align 1
@.str.134 = private unnamed_addr constant [46 x i8] c"expand_only ? SHA256_DIGEST_LENGTH : SIZE_MAX\00", align 1

; Function Attrs: nounwind uwtable
define internal ptr @get_kdfbyname_libctx(ptr noundef %0, ptr noundef %1) #0 {
  %3 = alloca ptr, align 8
  %4 = alloca ptr, align 8
  %5 = alloca ptr, align 8
  %6 = alloca ptr, align 8
  store ptr %0, ptr %3, align 8, !tbaa !11
  store ptr %1, ptr %4, align 8, !tbaa !18
  call void @llvm.lifetime.start.p0(i64 8, ptr %5) #6
  %7 = load ptr, ptr %3, align 8, !tbaa !11
  %8 = load ptr, ptr %4, align 8, !tbaa !18
  %9 = call ptr @EVP_KDF_fetch(ptr noundef %7, ptr noundef %8, ptr noundef null)
  store ptr %9, ptr %5, align 8, !tbaa !26
  call void @llvm.lifetime.start.p0(i64 8, ptr %6) #6
  %10 = load ptr, ptr %5, align 8, !tbaa !26
  %11 = call ptr @EVP_KDF_CTX_new(ptr noundef %10)
  store ptr %11, ptr %6, align 8, !tbaa !8
  %12 = load ptr, ptr %5, align 8, !tbaa !26
  call void @EVP_KDF_free(ptr noundef %12)
  %13 = load ptr, ptr %6, align 8, !tbaa !8
  call void @llvm.lifetime.end.p0(i64 8, ptr %6) #6
  call void @llvm.lifetime.end.p0(i64 8, ptr %5) #6
  ret ptr %13
}

; Function Attrs: nounwind uwtable
define internal ptr @get_kdfbyname(ptr noundef %0) #0 {
  %2 = alloca ptr, align 8
  store ptr %0, ptr %2, align 8, !tbaa !18
  %3 = load ptr, ptr %2, align 8, !tbaa !18
  %4 = call ptr @get_kdfbyname_libctx(ptr noundef null, ptr noundef %3)
  ret ptr %4
}

; Function Attrs: nounwind uwtable
define internal i32 @do_kdf_hkdf_gettables(i32 noundef %0, i32 noundef %1) #0 {
  %3 = alloca i32, align 4
  %4 = alloca i32, align 4
  %5 = alloca i32, align 4
  %6 = alloca i64, align 8
  %7 = alloca ptr, align 8
  %8 = alloca [2 x %struct.ossl_param_st], align 16
  %9 = alloca ptr, align 8
  %10 = alloca ptr, align 8
  %11 = alloca ptr, align 8
  %12 = alloca %struct.ossl_param_st, align 8
  %13 = alloca %struct.ossl_param_st, align 8
  %14 = alloca %struct.ossl_param_st, align 8
  store i32 %0, ptr %3, align 4, !tbaa !4
  store i32 %1, ptr %4, align 4, !tbaa !4
  call void @llvm.lifetime.start.p0(i64 4, ptr %5) #6
  store i32 0, ptr %5, align 4, !tbaa !4
  call void @llvm.lifetime.start.p0(i64 8, ptr %6) #6
  store i64 0, ptr %6, align 8, !tbaa !21
  call void @llvm.lifetime.start.p0(i64 8, ptr %7) #6
  call void @llvm.lifetime.start.p0(i64 80, ptr %8) #6
  call void @llvm.lifetime.start.p0(i64 8, ptr %9) #6
  call void @llvm.lifetime.start.p0(i64 8, ptr %10) #6
  call void @llvm.lifetime.start.p0(i64 8, ptr %11) #6
  store ptr null, ptr %11, align 8, !tbaa !8
  %15 = load i32, ptr %4, align 4, !tbaa !4
  %16 = icmp ne i32 %15, 0
  %17 = select i1 %16, ptr @.str.60, ptr null
  %18 = load i32, ptr %3, align 4, !tbaa !4
  %19 = icmp ne i32 %18, 0
  %20 = select i1 %19, ptr null, ptr @.str.124
  %21 = call ptr @construct_hkdf_params(ptr noundef %17, ptr noundef @.str.118, i64 noundef 6, ptr noundef @.str.71, ptr noundef %20)
  store ptr %21, ptr %7, align 8, !tbaa !13
  %22 = call i32 @test_ptr(ptr noundef @.str.53, i32 noundef 254, ptr noundef @.str.128, ptr noundef %21)
  %23 = icmp ne i32 %22, 0
  br i1 %23, label %24, label %36

24:                                               ; preds = %2
  %25 = call ptr @get_kdfbyname(ptr noundef @.str.126)
  store ptr %25, ptr %11, align 8, !tbaa !8
  %26 = call i32 @test_ptr(ptr noundef @.str.53, i32 noundef 255, ptr noundef @.str.125, ptr noundef %25)
  %27 = icmp ne i32 %26, 0
  br i1 %27, label %28, label %36

28:                                               ; preds = %24
  %29 = load ptr, ptr %11, align 8, !tbaa !8
  %30 = load ptr, ptr %7, align 8, !tbaa !13
  %31 = call i32 @EVP_KDF_CTX_set_params(ptr noundef %29, ptr noundef %30)
  %32 = icmp ne i32 %31, 0
  %33 = zext i1 %32 to i32
  %34 = call i32 @test_true(ptr noundef @.str.53, i32 noundef 256, ptr noundef @.str.65, i32 noundef %33)
  %35 = icmp ne i32 %34, 0
  br i1 %35, label %37, label %36

36:                                               ; preds = %28, %24, %2
  br label %85

37:                                               ; preds = %28
  %38 = load ptr, ptr %11, align 8, !tbaa !8
  %39 = call ptr @EVP_KDF_CTX_gettable_params(ptr noundef %38)
  store ptr %39, ptr %9, align 8, !tbaa !13
  %40 = call i32 @test_ptr(ptr noundef @.str.53, i32 noundef 260, ptr noundef @.str.129, ptr noundef %39)
  %41 = icmp ne i32 %40, 0
  br i1 %41, label %42, label %47

42:                                               ; preds = %37
  %43 = load ptr, ptr %9, align 8, !tbaa !13
  %44 = call ptr @OSSL_PARAM_locate_const(ptr noundef %43, ptr noundef @.str.131)
  store ptr %44, ptr %10, align 8, !tbaa !13
  %45 = call i32 @test_ptr(ptr noundef @.str.53, i32 noundef 261, ptr noundef @.str.130, ptr noundef %44)
  %46 = icmp ne i32 %45, 0
  br i1 %46, label %48, label %47

47:                                               ; preds = %42, %37
  br label %85

48:                                               ; preds = %42
  %49 = getelementptr inbounds [2 x %struct.ossl_param_st], ptr %8, i64 0, i64 0
  call void @llvm.lifetime.start.p0(i64 40, ptr %12) #6
  call void @OSSL_PARAM_construct_size_t(ptr dead_on_unwind writable sret(%struct.ossl_param_st) align 8 %12, ptr noundef @.str.131, ptr noundef %6)
  call void @llvm.memcpy.p0.p0.i64(ptr align 16 %49, ptr align 8 %12, i64 40, i1 false), !tbaa.struct !17
  call void @llvm.lifetime.end.p0(i64 40, ptr %12) #6
  %50 = getelementptr inbounds [2 x %struct.ossl_param_st], ptr %8, i64 0, i64 1
  call void @llvm.lifetime.start.p0(i64 40, ptr %13) #6
  call void @OSSL_PARAM_construct_end(ptr dead_on_unwind writable sret(%struct.ossl_param_st) align 8 %13)
  call void @llvm.memcpy.p0.p0.i64(ptr align 8 %50, ptr align 8 %13, i64 40, i1 false), !tbaa.struct !17
  call void @llvm.lifetime.end.p0(i64 40, ptr %13) #6
  %51 = load i32, ptr %4, align 4, !tbaa !4
  %52 = icmp ne i32 %51, 0
  br i1 %52, label %53, label %68

53:                                               ; preds = %48
  %54 = load ptr, ptr %11, align 8, !tbaa !8
  %55 = getelementptr inbounds [2 x %struct.ossl_param_st], ptr %8, i64 0, i64 0
  %56 = call i32 @EVP_KDF_CTX_get_params(ptr noundef %54, ptr noundef %55)
  %57 = call i32 @test_int_eq(ptr noundef @.str.53, i32 noundef 268, ptr noundef @.str.132, ptr noundef @.str.123, i32 noundef %56, i32 noundef 1)
  %58 = icmp ne i32 %57, 0
  br i1 %58, label %59, label %66

59:                                               ; preds = %53
  %60 = load i64, ptr %6, align 8, !tbaa !21
  %61 = load i32, ptr %3, align 4, !tbaa !4
  %62 = icmp ne i32 %61, 0
  %63 = select i1 %62, i64 32, i64 -1
  %64 = call i32 @test_size_t_eq(ptr noundef @.str.53, i32 noundef 269, ptr noundef @.str.133, ptr noundef @.str.134, i64 noundef %60, i64 noundef %63)
  %65 = icmp ne i32 %64, 0
  br i1 %65, label %67, label %66

66:                                               ; preds = %59, %53
  br label %85

67:                                               ; preds = %59
  br label %76

68:                                               ; preds = %48
  %69 = load ptr, ptr %11, align 8, !tbaa !8
  %70 = getelementptr inbounds [2 x %struct.ossl_param_st], ptr %8, i64 0, i64 0
  %71 = call i32 @EVP_KDF_CTX_get_params(ptr noundef %69, ptr noundef %70)
  %72 = call i32 @test_int_eq(ptr noundef @.str.53, i32 noundef 272, ptr noundef @.str.132, ptr noundef @.str.67, i32 noundef %71, i32 noundef 0)
  %73 = icmp ne i32 %72, 0
  br i1 %73, label %75, label %74

74:                                               ; preds = %68
  br label %85

75:                                               ; preds = %68
  br label %76

76:                                               ; preds = %75, %67
  %77 = getelementptr inbounds [2 x %struct.ossl_param_st], ptr %8, i64 0, i64 0
  call void @llvm.lifetime.start.p0(i64 40, ptr %14) #6
  call void @OSSL_PARAM_construct_end(ptr dead_on_unwind writable sret(%struct.ossl_param_st) align 8 %14)
  call void @llvm.memcpy.p0.p0.i64(ptr align 16 %77, ptr align 8 %14, i64 40, i1 false), !tbaa.struct !17
  call void @llvm.lifetime.end.p0(i64 40, ptr %14) #6
  %78 = load ptr, ptr %11, align 8, !tbaa !8
  %79 = getelementptr inbounds [2 x %struct.ossl_param_st], ptr %8, i64 0, i64 0
  %80 = call i32 @EVP_KDF_CTX_get_params(ptr noundef %78, ptr noundef %79)
  %81 = call i32 @test_int_eq(ptr noundef @.str.53, i32 noundef 278, ptr noundef @.str.132, ptr noundef @.str.123, i32 noundef %80, i32 noundef 1)
  %82 = icmp ne i32 %81, 0
  br i1 %82, label %84, label %83

83:                                               ; preds = %76
  br label %85

84:                                               ; preds = %76
  store i32 1, ptr %5, align 4, !tbaa !4
  br label %85

85:                                               ; preds = %84, %83, %74, %66, %47, %36
  %86 = load ptr, ptr %11, align 8, !tbaa !8
  call void @EVP_KDF_CTX_free(ptr noundef %86)
  %87 = load ptr, ptr %7, align 8, !tbaa !13
  call void @CRYPTO_free(ptr noundef %87, ptr noundef @.str.53, i32 noundef 283)
  %88 = load i32, ptr %5, align 4, !tbaa !4
  call void @llvm.lifetime.end.p0(i64 8, ptr %11) #6
  call void @llvm.lifetime.end.p0(i64 8, ptr %10) #6
  call void @llvm.lifetime.end.p0(i64 8, ptr %9) #6
  call void @llvm.lifetime.end.p0(i64 80, ptr %8) #6
  call void @llvm.lifetime.end.p0(i64 8, ptr %7) #6
  call void @llvm.lifetime.end.p0(i64 8, ptr %6) #6
  call void @llvm.lifetime.end.p0(i64 4, ptr %5) #6
  ret i32 %88
}