; Function Attrs: nounwind uwtable
define internal fastcc range(i32 0, 2) i32 @do_kdf_hkdf_gettables(i32 noundef range(i32 0, 2) %0, i32 noundef range(i32 0, 2) %1) unnamed_addr #0 {
  %3 = alloca i64, align 8
  %4 = alloca [2 x %struct.ossl_param_st], align 16
  %5 = alloca %struct.ossl_param_st, align 8
  %6 = alloca %struct.ossl_param_st, align 8
  call void @llvm.lifetime.start.p0(i64 8, ptr nonnull %3) #6
  store i64 0, ptr %3, align 8, !tbaa !15
  call void @llvm.lifetime.start.p0(i64 80, ptr nonnull %4) #6
  %.not = icmp eq i32 %1, 0
  %7 = select i1 %.not, ptr null, ptr @.str.60
  %.not14 = icmp eq i32 %0, 0
  %8 = select i1 %.not14, ptr @.str.124, ptr null
  %9 = tail call fastcc ptr @construct_hkdf_params(ptr noundef %7, ptr noundef nonnull @.str.118, i64 noundef 6, ptr noundef nonnull @.str.71, ptr noundef %8)
  %10 = tail call i32 @test_ptr(ptr noundef nonnull @.str.53, i32 noundef 254, ptr noundef nonnull @.str.128, ptr noundef %9) #6
  %.not15 = icmp eq i32 %10, 0
  br i1 %.not15, label %40, label %11

11:                                               ; preds = %2
  %12 = tail call ptr @EVP_KDF_fetch(ptr noundef null, ptr noundef nonnull @.str.126, ptr noundef null) #6
  %13 = tail call ptr @EVP_KDF_CTX_new(ptr noundef %12) #6
  tail call void @EVP_KDF_free(ptr noundef %12) #6
  %14 = tail call i32 @test_ptr(ptr noundef nonnull @.str.53, i32 noundef 255, ptr noundef nonnull @.str.125, ptr noundef %13) #6
  %.not16 = icmp eq i32 %14, 0
  br i1 %.not16, label %40, label %15

15:                                               ; preds = %11
  %16 = tail call i32 @EVP_KDF_CTX_set_params(ptr noundef %13, ptr noundef %9) #6
  %17 = icmp ne i32 %16, 0
  %18 = zext i1 %17 to i32
  %19 = tail call i32 @test_true(ptr noundef nonnull @.str.53, i32 noundef 256, ptr noundef nonnull @.str.65, i32 noundef %18) #6
  %.not17 = icmp eq i32 %19, 0
  br i1 %.not17, label %40, label %20

20:                                               ; preds = %15
  %21 = tail call ptr @EVP_KDF_CTX_gettable_params(ptr noundef %13) #6
  %22 = tail call i32 @test_ptr(ptr noundef nonnull @.str.53, i32 noundef 260, ptr noundef nonnull @.str.129, ptr noundef %21) #6
  %.not18 = icmp eq i32 %22, 0
  br i1 %.not18, label %40, label %23

23:                                               ; preds = %20
  %24 = tail call ptr @OSSL_PARAM_locate_const(ptr noundef %21, ptr noundef nonnull @.str.131) #6
  %25 = tail call i32 @test_ptr(ptr noundef nonnull @.str.53, i32 noundef 261, ptr noundef nonnull @.str.130, ptr noundef %24) #6
  %.not19 = icmp eq i32 %25, 0
  br i1 %.not19, label %40, label %26

26:                                               ; preds = %23
  call void @OSSL_PARAM_construct_size_t(ptr dead_on_unwind nonnull writable sret(%struct.ossl_param_st) align 8 %4, ptr noundef nonnull @.str.131, ptr noundef nonnull %3) #6
  %27 = getelementptr inbounds nuw i8, ptr %4, i64 40
  call void @llvm.lifetime.start.p0(i64 40, ptr nonnull %5) #6
  call void @OSSL_PARAM_construct_end(ptr dead_on_unwind nonnull writable sret(%struct.ossl_param_st) align 8 %5) #6
  call void @llvm.memcpy.p0.p0.i64(ptr noundef nonnull align 8 dereferenceable(40) %27, ptr noundef nonnull align 8 dereferenceable(40) %5, i64 40, i1 false), !tbaa.struct !10
  call void @llvm.lifetime.end.p0(i64 40, ptr nonnull %5) #6
  %28 = call i32 @EVP_KDF_CTX_get_params(ptr noundef %13, ptr noundef nonnull %4) #6
  br i1 %.not, label %35, label %29

29:                                               ; preds = %26
  %30 = call i32 @test_int_eq(ptr noundef nonnull @.str.53, i32 noundef 268, ptr noundef nonnull @.str.132, ptr noundef nonnull @.str.123, i32 noundef %28, i32 noundef 1) #6
  %.not21 = icmp eq i32 %30, 0
  br i1 %.not21, label %40, label %31

31:                                               ; preds = %29
  %32 = load i64, ptr %3, align 8, !tbaa !15
  %33 = select i1 %.not14, i64 -1, i64 32
  %34 = call i32 @test_size_t_eq(ptr noundef nonnull @.str.53, i32 noundef 269, ptr noundef nonnull @.str.133, ptr noundef nonnull @.str.134, i64 noundef %32, i64 noundef %33) #6
  %.not22 = icmp eq i32 %34, 0
  br i1 %.not22, label %40, label %37

35:                                               ; preds = %26
  %36 = call i32 @test_int_eq(ptr noundef nonnull @.str.53, i32 noundef 272, ptr noundef nonnull @.str.132, ptr noundef nonnull @.str.67, i32 noundef %28, i32 noundef 0) #6
  %.not20 = icmp eq i32 %36, 0
  br i1 %.not20, label %40, label %37

37:                                               ; preds = %35, %31
  call void @llvm.lifetime.start.p0(i64 40, ptr nonnull %6) #6
  call void @OSSL_PARAM_construct_end(ptr dead_on_unwind nonnull writable sret(%struct.ossl_param_st) align 8 %6) #6
  call void @llvm.memcpy.p0.p0.i64(ptr noundef nonnull align 16 dereferenceable(40) %4, ptr noundef nonnull align 8 dereferenceable(40) %6, i64 40, i1 false), !tbaa.struct !10
  call void @llvm.lifetime.end.p0(i64 40, ptr nonnull %6) #6
  %38 = call i32 @EVP_KDF_CTX_get_params(ptr noundef %13, ptr noundef nonnull %4) #6
  %39 = call i32 @test_int_eq(ptr noundef nonnull @.str.53, i32 noundef 278, ptr noundef nonnull @.str.132, ptr noundef nonnull @.str.123, i32 noundef %38, i32 noundef 1) #6
  %.not23 = icmp ne i32 %39, 0
  %spec.select = zext i1 %.not23 to i32
  br label %40

40:                                               ; preds = %37, %35, %29, %31, %20, %23, %2, %11, %15
  %.013 = phi i32 [ 0, %31 ], [ 0, %29 ], [ 0, %35 ], [ 0, %23 ], [ 0, %20 ], [ 0, %15 ], [ 0, %11 ], [ 0, %2 ], [ %spec.select, %37 ]
  %.0 = phi ptr [ %13, %31 ], [ %13, %29 ], [ %13, %35 ], [ %13, %23 ], [ %13, %20 ], [ %13, %15 ], [ %13, %11 ], [ null, %2 ], [ %13, %37 ]
  call void @EVP_KDF_CTX_free(ptr noundef %.0) #6
  call void @CRYPTO_free(ptr noundef %9, ptr noundef nonnull @.str.53, i32 noundef 283) #6
  call void @llvm.lifetime.end.p0(i64 80, ptr nonnull %4) #6
  call void @llvm.lifetime.end.p0(i64 8, ptr nonnull %3) #6
  ret i32 %.013
}